target datalayout = "e-m:e-p270:32:32-p271:32:32-p272:64:64-i64:64-i128:128-f80:128-n8:16:32:64-S128"
target triple = "x86_64-unknown-linux-gnu"

%"class.std::__cxx11::basic_string" = type { %"struct.std::__cxx11::basic_string<char>::_Alloc_hider", i64, %union.anon.0 }
%"struct.std::__cxx11::basic_string<char>::_Alloc_hider" = type { ptr }
%union.anon.0 = type { i64, [8 x i8] }
%"class.OpenImageIO_v2_6_0::basic_string_view" = type { ptr, i64 }
%"class.std::allocator" = type { i8 }
%"class.std::basic_string_view" = type { i64, ptr }
%"struct.std::__cxx11::basic_string<char>::__sv_wrapper" = type { %"class.std::basic_string_view" }

; Function Attrs: mustprogress nounwind uwtable
define linkonce_odr void @_ZNSt17basic_string_viewIcSt11char_traitsIcEEC2EPKcm(ptr noundef nonnull align 8 dereferenceable(16) %this, ptr noundef %__str, i64 noundef %__len) unnamed_addr #4 comdat align 2 {
entry:
  %this.addr = alloca ptr, align 8
  %__str.addr = alloca ptr, align 8
  %__len.addr = alloca i64, align 8
  store ptr %this, ptr %this.addr, align 8
  store ptr %__str, ptr %__str.addr, align 8
  store i64 %__len, ptr %__len.addr, align 8
  %this1 = load ptr, ptr %this.addr, align 8
  %_M_len = getelementptr inbounds %"class.std::basic_string_view", ptr %this1, i32 0, i32 0
  %0 = load i64, ptr %__len.addr, align 8
  store i64 %0, ptr %_M_len, align 8
  %_M_str = getelementptr inbounds %"class.std::basic_string_view", ptr %this1, i32 0, i32 1
  %1 = load ptr, ptr %__str.addr, align 8
  store ptr %1, ptr %_M_str, align 8
  ret void
}

; Function Attrs: mustprogress nounwind uwtable
define linkonce_odr hidden noundef i64 @_ZNK18OpenImageIO_v2_6_017basic_string_viewIcSt11char_traitsIcEE4sizeEv(ptr noundef nonnull align 8 dereferenceable(16) %this) #4 comdat align 2 {
entry:
  %this.addr = alloca ptr, align 8
  store ptr %this, ptr %this.addr, align 8
  %this1 = load ptr, ptr %this.addr, align 8
  %m_len = getelementptr inbounds %"class.OpenImageIO_v2_6_0::basic_string_view", ptr %this1, i32 0, i32 1
  %0 = load i64, ptr %m_len, align 8
  ret i64 %0
}

; Function Attrs: mustprogress nounwind uwtable
define linkonce_odr hidden noundef ptr @_ZNK18OpenImageIO_v2_6_017basic_string_viewIcSt11char_traitsIcEE4dataEv(ptr noundef nonnull align 8 dereferenceable(16) %this) #4 comdat align 2 {
entry:
  %this.addr = alloca ptr, align 8
  store ptr %this, ptr %this.addr, align 8
  %this1 = load ptr, ptr %this.addr, align 8
  %m_chars = getelementptr inbounds %"class.OpenImageIO_v2_6_0::basic_string_view", ptr %this1, i32 0, i32 0
  %0 = load ptr, ptr %m_chars, align 8
  ret ptr %0
}

; Function Attrs: mustprogress nounwind uwtable
define linkonce_odr hidden { i64, ptr } @_ZNK18OpenImageIO_v2_6_017basic_string_viewIcSt11char_traitsIcEEcvSt17basic_string_viewIcS2_EEv(ptr noundef nonnull align 8 dereferenceable(16) %this) #4 comdat align 2 {
entry:
  %retval = alloca %"class.std::basic_string_view", align 8
  %this.addr = alloca ptr, align 8
  store ptr %this, ptr %this.addr, align 8
  %this1 = load ptr, ptr %this.addr, align 8
  %call = call noundef ptr @_ZNK18OpenImageIO_v2_6_017basic_string_viewIcSt11char_traitsIcEE4dataEv(ptr noundef nonnull align 8 dereferenceable(16) %this1) #3
  %call2 = call noundef i64 @_ZNK18OpenImageIO_v2_6_017basic_string_viewIcSt11char_traitsIcEE4sizeEv(ptr noundef nonnull align 8 dereferenceable(16) %this1) #3
  call void @_ZNSt17basic_string_viewIcSt11char_traitsIcEEC2EPKcm(ptr noundef nonnull align 8 dereferenceable(16) %retval, ptr noundef %call, i64 noundef %call2) #3
  %0 = load { i64, ptr }, ptr %retval, align 8
  ret { i64, ptr } %0
}

; Function Attrs: mustprogress uwtable
define linkonce_odr hidden void @_ZNSt7__cxx1112basic_stringIcSt11char_traitsIcESaIcEEC2IN18OpenImageIO_v2_6_017basic_string_viewIcS2_EEvEERKT_RKS3_(ptr noundef nonnull align 8 dereferenceable(32) %this, ptr noundef nonnull align 8 dereferenceable(16) %__t, ptr noundef nonnull align 1 dereferenceable(1) %__a) unnamed_addr #6 comdat align 2 {
entry:
  %this.addr = alloca ptr, align 8
  %__t.addr = alloca ptr, align 8
  %__a.addr = alloca ptr, align 8
  %agg.tmp = alloca %"struct.std::__cxx11::basic_string<char>::__sv_wrapper", align 8
  %agg.tmp2 = alloca %"class.std::basic_string_view", align 8
  %agg.tmp3 = alloca %"class.std::basic_string_view", align 8
  store ptr %this, ptr %this.addr, align 8
  store ptr %__t, ptr %__t.addr, align 8
  store ptr %__a, ptr %__a.addr, align 8
  %this1 = load ptr, ptr %this.addr, align 8
  %0 = load ptr, ptr %__t.addr, align 8
  %call = call { i64, ptr } @_ZNK18OpenImageIO_v2_6_017basic_string_viewIcSt11char_traitsIcEEcvSt17basic_string_viewIcS2_EEv(ptr noundef nonnull align 8 dereferenceable(16) %0)
  %1 = getelementptr inbounds { i64, ptr }, ptr %agg.tmp3, i32 0, i32 0
  %2 = extractvalue { i64, ptr } %call, 0
  store i64 %2, ptr %1, align 8
  %3 = getelementptr inbounds { i64, ptr }, ptr %agg.tmp3, i32 0, i32 1
  %4 = extractvalue { i64, ptr } %call, 1
  store ptr %4, ptr %3, align 8
  %5 = getelementptr inbounds { i64, ptr }, ptr %agg.tmp3, i32 0, i32 0
  %6 = load i64, ptr %5, align 8
  %7 = getelementptr inbounds { i64, ptr }, ptr %agg.tmp3, i32 0, i32 1
  %8 = load ptr, ptr %7, align 8
  %call4 = call { i64, ptr } @_ZNSt7__cxx1112basic_stringIcSt11char_traitsIcESaIcEE17_S_to_string_viewESt17basic_string_viewIcS2_E(i64 %6, ptr %8) #3
  %9 = getelementptr inbounds { i64, ptr }, ptr %agg.tmp2, i32 0, i32 0
  %10 = extractvalue { i64, ptr } %call4, 0
  store i64 %10, ptr %9, align 8
  %11 = getelementptr inbounds { i64, ptr }, ptr %agg.tmp2, i32 0, i32 1
  %12 = extractvalue { i64, ptr } %call4, 1
  store ptr %12, ptr %11, align 8
  %13 = getelementptr inbounds { i64, ptr }, ptr %agg.tmp2, i32 0, i32 0
  %14 = load i64, ptr %13, align 8
  %15 = getelementptr inbounds { i64, ptr }, ptr %agg.tmp2, i32 0, i32 1
  %16 = load ptr, ptr %15, align 8
  call void @_ZNSt7__cxx1112basic_stringIcSt11char_traitsIcESaIcEE12__sv_wrapperC1ESt17basic_string_viewIcS2_E(ptr noundef nonnull align 8 dereferenceable(16) %agg.tmp, i64 %14, ptr %16) #3
  %17 = load ptr, ptr %__a.addr, align 8
  %18 = getelementptr inbounds { i64, ptr }, ptr %agg.tmp, i32 0, i32 0
  %19 = load i64, ptr %18, align 8
  %20 = getelementptr inbounds { i64, ptr }, ptr %agg.tmp, i32 0, i32 1
  %21 = load ptr, ptr %20, align 8
  call void @_ZNSt7__cxx1112basic_stringIcSt11char_traitsIcESaIcEEC2ENS4_12__sv_wrapperERKS3_(ptr noundef nonnull align 8 dereferenceable(32) %this1, i64 %19, ptr %21, ptr noundef nonnull align 1 dereferenceable(1) %17)
  ret void
}

; Function Attrs: mustprogress uwtable
define noundef ptr @_ZN18OpenImageIO_v2_6_010Filesystem5fopenENS_17basic_string_viewIcSt11char_traitsIcEEES4_(ptr noundef %path, ptr noundef %mode) #6 personality ptr @__gxx_personality_v0 {
entry:
  %path.indirect_addr = alloca ptr, align 8
  %mode.indirect_addr = alloca ptr, align 8
  %ref.tmp = alloca %"class.std::__cxx11::basic_string", align 8
  %ref.tmp1 = alloca %"class.std::allocator", align 1
  %exn.slot = alloca ptr, align 8
  %ehselector.slot = alloca i32, align 4
  %ref.tmp2 = alloca %"class.std::__cxx11::basic_string", align 8
  %ref.tmp3 = alloca %"class.std::allocator", align 1
  store ptr %path, ptr %path.indirect_addr, align 8
  store ptr %mode, ptr %mode.indirect_addr, align 8
  call void @_ZNSaIcEC1Ev(ptr noundef nonnull align 1 dereferenceable(1) %ref.tmp1) #3
  invoke void @_ZNSt7__cxx1112basic_stringIcSt11char_traitsIcESaIcEEC2IN18OpenImageIO_v2_6_017basic_string_viewIcS2_EEvEERKT_RKS3_(ptr noundef nonnull align 8 dereferenceable(32) %ref.tmp, ptr noundef nonnull align 8 dereferenceable(16) %path, ptr noundef nonnull align 1 dereferenceable(1) %ref.tmp1)
          to label %invoke.cont unwind label %lpad

invoke.cont:                                      ; preds = %entry
  %call = call noundef ptr @_ZNKSt7__cxx1112basic_stringIcSt11char_traitsIcESaIcEE5c_strEv(ptr noundef nonnull align 8 dereferenceable(32) %ref.tmp) #3
  call void @_ZNSaIcEC1Ev(ptr noundef nonnull align 1 dereferenceable(1) %ref.tmp3) #3
  invoke void @_ZNSt7__cxx1112basic_stringIcSt11char_traitsIcESaIcEEC2IN18OpenImageIO_v2_6_017basic_string_viewIcS2_EEvEERKT_RKS3_(ptr noundef nonnull align 8 dereferenceable(32) %ref.tmp2, ptr noundef nonnull align 8 dereferenceable(16) %mode, ptr noundef nonnull align 1 dereferenceable(1) %ref.tmp3)
          to label %invoke.cont5 unwind label %lpad4

invoke.cont5:                                     ; preds = %invoke.cont
  %call6 = call noundef ptr @_ZNKSt7__cxx1112basic_stringIcSt11char_traitsIcESaIcEE5c_strEv(ptr noundef nonnull align 8 dereferenceable(32) %ref.tmp2) #3
  %call9 = invoke noalias ptr @fopen(ptr noundef %call, ptr noundef %call6)
          to label %invoke.cont8 unwind label %lpad7

invoke.cont8:                                     ; preds = %invoke.cont5
  call void @_ZNSt7__cxx1112basic_stringIcSt11char_traitsIcESaIcEED1Ev(ptr noundef nonnull align 8 dereferenceable(32) %ref.tmp2) #3
  call void @_ZNSaIcED1Ev(ptr noundef nonnull align 1 dereferenceable(1) %ref.tmp3) #3
  call void @_ZNSt7__cxx1112basic_stringIcSt11char_traitsIcESaIcEED1Ev(ptr noundef nonnull align 8 dereferenceable(32) %ref.tmp) #3
  call void @_ZNSaIcED1Ev(ptr noundef nonnull align 1 dereferenceable(1) %ref.tmp1) #3
  ret ptr %call9

lpad:                                             ; preds = %entry
  %0 = landingpad { ptr, i32 }
          cleanup
  %1 = extractvalue { ptr, i32 } %0, 0
  store ptr %1, ptr %exn.slot, align 8
  %2 = extractvalue { ptr, i32 } %0, 1
  store i32 %2, ptr %ehselector.slot, align 4
  br label %ehcleanup11

lpad4:                                            ; preds = %invoke.cont
  %3 = landingpad { ptr, i32 }
          cleanup
  %4 = extractvalue { ptr, i32 } %3, 0
  store ptr %4, ptr %exn.slot, align 8
  %5 = extractvalue { ptr, i32 } %3, 1
  store i32 %5, ptr %ehselector.slot, align 4
  br label %ehcleanup

lpad7:                                            ; preds = %invoke.cont5
  %6 = landingpad { ptr, i32 }
          cleanup
  %7 = extractvalue { ptr, i32 } %6, 0
  store ptr %7, ptr %exn.slot, align 8
  %8 = extractvalue { ptr, i32 } %6, 1
  store i32 %8, ptr %ehselector.slot, align 4
  call void @_ZNSt7__cxx1112basic_stringIcSt11char_traitsIcESaIcEED1Ev(ptr noundef nonnull align 8 dereferenceable(32) %ref.tmp2) #3
  br label %ehcleanup

ehcleanup:                                        ; preds = %lpad7, %lpad4
  call void @_ZNSaIcED1Ev(ptr noundef nonnull align 1 dereferenceable(1) %ref.tmp3) #3
  call void @_ZNSt7__cxx1112basic_stringIcSt11char_traitsIcESaIcEED1Ev(ptr noundef nonnull align 8 dereferenceable(32) %ref.tmp) #3
  br label %ehcleanup11

ehcleanup11:                                      ; preds = %ehcleanup, %lpad
  call void @_ZNSaIcED1Ev(ptr noundef nonnull align 1 dereferenceable(1) %ref.tmp1) #3
  br label %eh.resume

eh.resume:                                        ; preds = %ehcleanup11
  %exn = load ptr, ptr %exn.slot, align 8
  %sel = load i32, ptr %ehselector.slot, align 4
  %lpad.val = insertvalue { ptr, i32 } poison, ptr %exn, 0
  %lpad.val12 = insertvalue { ptr, i32 } %lpad.val, i32 %sel, 1
  resume { ptr, i32 } %lpad.val12
}