; Function Attrs: mustprogress uwtable
define noalias noundef ptr @_ZN18OpenImageIO_v2_6_010Filesystem5fopenENS_17basic_string_viewIcSt11char_traitsIcEEES4_(ptr nocapture noundef readonly %path, ptr nocapture noundef readonly %mode) local_unnamed_addr #5 personality ptr @__gxx_personality_v0 {
entry:
  %agg.tmp.i2 = alloca %"struct.std::__cxx11::basic_string<char>::__sv_wrapper", align 8
  %agg.tmp.i = alloca %"struct.std::__cxx11::basic_string<char>::__sv_wrapper", align 8
  %ref.tmp = alloca %"class.std::__cxx11::basic_string", align 8
  %ref.tmp1 = alloca %"class.std::allocator", align 1
  %ref.tmp2 = alloca %"class.std::__cxx11::basic_string", align 8
  %ref.tmp3 = alloca %"class.std::allocator", align 1
  call void @_ZNSaIcEC1Ev(ptr noundef nonnull align 1 dereferenceable(1) %ref.tmp1) #32
  call void @llvm.lifetime.start.p0(i64 16, ptr nonnull %agg.tmp.i)
  %0 = load ptr, ptr %path, align 8
  %m_len.i.i.i = getelementptr inbounds i8, ptr %path, i64 8
  %1 = load i64, ptr %m_len.i.i.i, align 8
  %call4.i = call { i64, ptr } @_ZNSt7__cxx1112basic_stringIcSt11char_traitsIcESaIcEE17_S_to_string_viewESt17basic_string_viewIcS2_E(i64 %1, ptr %0) #32
  %2 = extractvalue { i64, ptr } %call4.i, 0
  %3 = extractvalue { i64, ptr } %call4.i, 1
  call void @_ZNSt7__cxx1112basic_stringIcSt11char_traitsIcESaIcEE12__sv_wrapperC1ESt17basic_string_viewIcS2_E(ptr noundef nonnull align 8 dereferenceable(16) %agg.tmp.i, i64 %2, ptr %3) #32
  %4 = load i64, ptr %agg.tmp.i, align 8
  %5 = getelementptr inbounds i8, ptr %agg.tmp.i, i64 8
  %6 = load ptr, ptr %5, align 8
  invoke void @_ZNSt7__cxx1112basic_stringIcSt11char_traitsIcESaIcEEC2ENS4_12__sv_wrapperERKS3_(ptr noundef nonnull align 8 dereferenceable(32) %ref.tmp, i64 %4, ptr %6, ptr noundef nonnull align 1 dereferenceable(1) %ref.tmp1)
          to label %invoke.cont unwind label %lpad

invoke.cont:                                      ; preds = %entry
  call void @llvm.lifetime.end.p0(i64 16, ptr nonnull %agg.tmp.i)
  %call = call noundef ptr @_ZNKSt7__cxx1112basic_stringIcSt11char_traitsIcESaIcEE5c_strEv(ptr noundef nonnull align 8 dereferenceable(32) %ref.tmp) #32
  call void @_ZNSaIcEC1Ev(ptr noundef nonnull align 1 dereferenceable(1) %ref.tmp3) #32
  call void @llvm.lifetime.start.p0(i64 16, ptr nonnull %agg.tmp.i2)
  %7 = load ptr, ptr %mode, align 8
  %m_len.i.i.i3 = getelementptr inbounds i8, ptr %mode, i64 8
  %8 = load i64, ptr %m_len.i.i.i3, align 8
  %call4.i4 = call { i64, ptr } @_ZNSt7__cxx1112basic_stringIcSt11char_traitsIcESaIcEE17_S_to_string_viewESt17basic_string_viewIcS2_E(i64 %8, ptr %7) #32
  %9 = extractvalue { i64, ptr } %call4.i4, 0
  %10 = extractvalue { i64, ptr } %call4.i4, 1
  call void @_ZNSt7__cxx1112basic_stringIcSt11char_traitsIcESaIcEE12__sv_wrapperC1ESt17basic_string_viewIcS2_E(ptr noundef nonnull align 8 dereferenceable(16) %agg.tmp.i2, i64 %9, ptr %10) #32
  %11 = load i64, ptr %agg.tmp.i2, align 8
  %12 = getelementptr inbounds i8, ptr %agg.tmp.i2, i64 8
  %13 = load ptr, ptr %12, align 8
  invoke void @_ZNSt7__cxx1112basic_stringIcSt11char_traitsIcESaIcEEC2ENS4_12__sv_wrapperERKS3_(ptr noundef nonnull align 8 dereferenceable(32) %ref.tmp2, i64 %11, ptr %13, ptr noundef nonnull align 1 dereferenceable(1) %ref.tmp3)
          to label %invoke.cont5 unwind label %lpad4

invoke.cont5:                                     ; preds = %invoke.cont
  call void @llvm.lifetime.end.p0(i64 16, ptr nonnull %agg.tmp.i2)
  %call6 = call noundef ptr @_ZNKSt7__cxx1112basic_stringIcSt11char_traitsIcESaIcEE5c_strEv(ptr noundef nonnull align 8 dereferenceable(32) %ref.tmp2) #32
  %call9 = call noalias ptr @fopen(ptr noundef %call, ptr noundef %call6)
  call void @_ZNSt7__cxx1112basic_stringIcSt11char_traitsIcESaIcEED1Ev(ptr noundef nonnull align 8 dereferenceable(32) %ref.tmp2) #32
  call void @_ZNSaIcED1Ev(ptr noundef nonnull align 1 dereferenceable(1) %ref.tmp3) #32
  call void @_ZNSt7__cxx1112basic_stringIcSt11char_traitsIcESaIcEED1Ev(ptr noundef nonnull align 8 dereferenceable(32) %ref.tmp) #32
  call void @_ZNSaIcED1Ev(ptr noundef nonnull align 1 dereferenceable(1) %ref.tmp1) #32
  ret ptr %call9

lpad:                                             ; preds = %entry
  %14 = landingpad { ptr, i32 }
          cleanup
  br label %ehcleanup11

lpad4:                                            ; preds = %invoke.cont
  %15 = landingpad { ptr, i32 }
          cleanup
  call void @_ZNSaIcED1Ev(ptr noundef nonnull align 1 dereferenceable(1) %ref.tmp3) #32
  call void @_ZNSt7__cxx1112basic_stringIcSt11char_traitsIcESaIcEED1Ev(ptr noundef nonnull align 8 dereferenceable(32) %ref.tmp) #32
  br label %ehcleanup11

ehcleanup11:                                      ; preds = %lpad4, %lpad
  %.pn = phi { ptr, i32 } [ %15, %lpad4 ], [ %14, %lpad ]
  call void @_ZNSaIcED1Ev(ptr noundef nonnull align 1 dereferenceable(1) %ref.tmp1) #32
  resume { ptr, i32 } %.pn
}